; Function Attrs: mustprogress uwtable
define void @_ZN5draco14PointAttribute6ResizeEm(ptr noundef nonnull align 8 captures(none) dereferenceable(112) initializes((96, 100)) %0, i64 noundef %1) local_unnamed_addr #3 align 2 {
  %3 = trunc i64 %1 to i32
  %4 = getelementptr inbounds nuw i8, ptr %0, i64 96
  store i32 %3, ptr %4, align 8, !tbaa !52
  %5 = getelementptr inbounds nuw i8, ptr %0, i64 64
  %6 = load ptr, ptr %5, align 8, !tbaa !10
  %7 = getelementptr inbounds nuw i8, ptr %0, i64 40
  %8 = load i64, ptr %7, align 8, !tbaa !66
  %9 = mul i64 %8, %1
  tail call void @_ZN5draco10DataBuffer6ResizeEl(ptr noundef nonnull align 8 dereferenceable(40) %6, i64 noundef %9)
  ret void
}